; Function Attrs: mustprogress uwtable
define dso_local noundef zeroext i1 @_ZN3igl6opengl4glfw5imgui11ImGuiPlugin6key_upEii(ptr noundef nonnull readonly align 8 captures(none) dereferenceable(88) %0, i32 noundef %1, i32 noundef %2) unnamed_addr #0 align 2 {
  %4 = getelementptr inbounds nuw i8, ptr %0, i64 40
  %5 = load ptr, ptr %4, align 8, !tbaa !4
  %6 = getelementptr inbounds nuw i8, ptr %5, i64 48
  %7 = load ptr, ptr %6, align 16, !tbaa !26
  tail call void @_Z26ImGui_ImplGlfw_KeyCallbackP10GLFWwindowiiii(ptr noundef %7, i32 noundef %1, i32 noundef 0, i32 noundef 0, i32 noundef %2)
  %8 = tail call noundef nonnull align 8 dereferenceable(5464) ptr @_ZN5ImGui5GetIOEv()
  %9 = getelementptr inbounds nuw i8, ptr %8, i64 909
  %10 = load i8, ptr %9, align 1, !tbaa !87, !range !85, !noundef !86
  %11 = trunc nuw i8 %10 to i1
  br i1 %11, label %.loopexit, label %12

12:                                               ; preds = %3
  %13 = getelementptr inbounds nuw i8, ptr %0, i64 64
  %14 = load ptr, ptr %13, align 8, !tbaa !73
  %15 = getelementptr inbounds nuw i8, ptr %0, i64 72
  %16 = load ptr, ptr %15, align 8, !tbaa !73
  %.not15.not = icmp eq ptr %14, %16
  br i1 %.not15.not, label %.loopexit, label %.lr.ph

.lr.ph:                                           ; preds = %12, %.lr.ph
  %.sroa.012.016 = phi ptr [ %22, %.lr.ph ], [ %14, %12 ]
  %17 = load ptr, ptr %.sroa.012.016, align 8, !tbaa !74
  %18 = load ptr, ptr %17, align 8, !tbaa !71
  %19 = getelementptr inbounds nuw i8, ptr %18, i64 80
  %20 = load ptr, ptr %19, align 8
  %21 = tail call noundef zeroext i1 %20(ptr noundef nonnull align 8 dereferenceable(56) %17, i32 noundef %1, i32 noundef %2)
  %22 = getelementptr inbounds nuw i8, ptr %.sroa.012.016, i64 8
  %.not.not = icmp eq ptr %22, %16
  %or.cond = select i1 %21, i1 true, i1 %.not.not
  br i1 %or.cond, label %.loopexit, label %.lr.ph

.loopexit:                                        ; preds = %.lr.ph, %12, %3
  %.0 = phi i1 [ true, %3 ], [ false, %12 ], [ %21, %.lr.ph ]
  ret i1 %.0
}